target datalayout = "e-m:e-p270:32:32-p271:32:32-p272:64:64-i64:64-i128:128-f80:128-n8:16:32:64-S128"
target triple = "x86_64-pc-linux-gnu"

%struct.AVPacket = type { ptr, i64, i64, ptr, i32, i32, i32, ptr, i32, i64, i64, ptr, ptr, %struct.AVRational }
%struct.AVRational = type { i32, i32 }
%struct.PutBitContext = type { i32, i32, ptr, ptr, ptr }
%struct.AVFormatContext = type { ptr, ptr, ptr, ptr, ptr, i32, i32, ptr, i32, ptr, i32, ptr, ptr, i64, i64, i64, i32, i32, i32, i64, i64, ptr, i32, i32, ptr, i32, i32, i32, i32, ptr, i64, i32, i32, %struct.AVIOInterruptCB, i32, i32, i32, i32, i64, i32, i32, i32, i32, i32, i32, i32, i32, i32, i32, i32, i32, i64, i32, i32, i32, i32, i32, ptr, ptr, ptr, ptr, i32, ptr, ptr, ptr, ptr, i32, ptr, ptr, i64, ptr, ptr, ptr, i64 }
%struct.AVIOInterruptCB = type { ptr, ptr }

@.str.3 = private unnamed_addr constant [43 x i8] c"Internal error, put_bits buffer too small\0A\00", align 1
@.str.4 = private unnamed_addr constant [30 x i8] c"Assertion %s failed at %s:%d\0A\00", align 1
@.str.5 = private unnamed_addr constant [24 x i8] c"s->buf_ptr < s->buf_end\00", align 1
@.str.6 = private unnamed_addr constant [24 x i8] c"./libavcodec/put_bits.h\00", align 1

; Function Attrs: alwaysinline nounwind willreturn memory(none) uwtable
define internal i32 @av_bswap32(i32 noundef %0) #6 {
  %2 = alloca i32, align 4
  store i32 %0, ptr %2, align 4, !tbaa !9
  %3 = load i32, ptr %2, align 4, !tbaa !9
  %4 = shl i32 %3, 8
  %5 = and i32 %4, 65280
  %6 = load i32, ptr %2, align 4, !tbaa !9
  %7 = lshr i32 %6, 8
  %8 = and i32 %7, 255
  %9 = or i32 %5, %8
  %10 = shl i32 %9, 16
  %11 = load i32, ptr %2, align 4, !tbaa !9
  %12 = lshr i32 %11, 16
  %13 = shl i32 %12, 8
  %14 = and i32 %13, 65280
  %15 = load i32, ptr %2, align 4, !tbaa !9
  %16 = lshr i32 %15, 16
  %17 = lshr i32 %16, 8
  %18 = and i32 %17, 255
  %19 = or i32 %14, %18
  %20 = or i32 %10, %19
  ret i32 %20
}

; Function Attrs: inlinehint nounwind uwtable
define internal void @put_bits_no_assert(ptr noundef %0, i32 noundef %1, i32 noundef %2) #5 {
  %4 = alloca ptr, align 8
  %5 = alloca i32, align 4
  %6 = alloca i32, align 4
  %7 = alloca i32, align 4
  %8 = alloca i32, align 4
  store ptr %0, ptr %4, align 8, !tbaa !67
  store i32 %1, ptr %5, align 4, !tbaa !9
  store i32 %2, ptr %6, align 4, !tbaa !9
  call void @llvm.lifetime.start.p0(i64 4, ptr %7) #8
  call void @llvm.lifetime.start.p0(i64 4, ptr %8) #8
  %9 = load ptr, ptr %4, align 8, !tbaa !67
  %10 = getelementptr inbounds nuw %struct.PutBitContext, ptr %9, i32 0, i32 0
  %11 = load i32, ptr %10, align 8, !tbaa !75
  store i32 %11, ptr %7, align 4, !tbaa !9
  %12 = load ptr, ptr %4, align 8, !tbaa !67
  %13 = getelementptr inbounds nuw %struct.PutBitContext, ptr %12, i32 0, i32 1
  %14 = load i32, ptr %13, align 4, !tbaa !74
  store i32 %14, ptr %8, align 4, !tbaa !9
  %15 = load i32, ptr %5, align 4, !tbaa !9
  %16 = load i32, ptr %8, align 4, !tbaa !9
  %17 = icmp slt i32 %15, %16
  br i1 %17, label %18, label %27

18:                                               ; preds = %3
  %19 = load i32, ptr %7, align 4, !tbaa !9
  %20 = load i32, ptr %5, align 4, !tbaa !9
  %21 = shl i32 %19, %20
  %22 = load i32, ptr %6, align 4, !tbaa !9
  %23 = or i32 %21, %22
  store i32 %23, ptr %7, align 4, !tbaa !9
  %24 = load i32, ptr %5, align 4, !tbaa !9
  %25 = load i32, ptr %8, align 4, !tbaa !9
  %26 = sub nsw i32 %25, %24
  store i32 %26, ptr %8, align 4, !tbaa !9
  br label %65

27:                                               ; preds = %3
  %28 = load i32, ptr %8, align 4, !tbaa !9
  %29 = load i32, ptr %7, align 4, !tbaa !9
  %30 = shl i32 %29, %28
  store i32 %30, ptr %7, align 4, !tbaa !9
  %31 = load i32, ptr %6, align 4, !tbaa !9
  %32 = load i32, ptr %5, align 4, !tbaa !9
  %33 = load i32, ptr %8, align 4, !tbaa !9
  %34 = sub nsw i32 %32, %33
  %35 = lshr i32 %31, %34
  %36 = load i32, ptr %7, align 4, !tbaa !9
  %37 = or i32 %36, %35
  store i32 %37, ptr %7, align 4, !tbaa !9
  %38 = load ptr, ptr %4, align 8, !tbaa !67
  %39 = getelementptr inbounds nuw %struct.PutBitContext, ptr %38, i32 0, i32 4
  %40 = load ptr, ptr %39, align 8, !tbaa !72
  %41 = load ptr, ptr %4, align 8, !tbaa !67
  %42 = getelementptr inbounds nuw %struct.PutBitContext, ptr %41, i32 0, i32 3
  %43 = load ptr, ptr %42, align 8, !tbaa !73
  %44 = ptrtoint ptr %40 to i64
  %45 = ptrtoint ptr %43 to i64
  %46 = sub i64 %44, %45
  %47 = icmp uge i64 %46, 4
  br i1 %47, label %48, label %58

48:                                               ; preds = %27
  %49 = load i32, ptr %7, align 4, !tbaa !9
  %50 = call i32 @av_bswap32(i32 noundef %49) #10
  %51 = load ptr, ptr %4, align 8, !tbaa !67
  %52 = getelementptr inbounds nuw %struct.PutBitContext, ptr %51, i32 0, i32 3
  %53 = load ptr, ptr %52, align 8, !tbaa !73
  store i32 %50, ptr %53, align 1, !tbaa !15
  %54 = load ptr, ptr %4, align 8, !tbaa !67
  %55 = getelementptr inbounds nuw %struct.PutBitContext, ptr %54, i32 0, i32 3
  %56 = load ptr, ptr %55, align 8, !tbaa !73
  %57 = getelementptr inbounds nuw i8, ptr %56, i64 4
  store ptr %57, ptr %55, align 8, !tbaa !73
  br label %59

58:                                               ; preds = %27
  call void (ptr, i32, ptr, ...) @av_log(ptr noundef null, i32 noundef 16, ptr noundef @.str.3)
  br label %59

59:                                               ; preds = %58, %48
  %60 = load i32, ptr %5, align 4, !tbaa !9
  %61 = sub nsw i32 32, %60
  %62 = load i32, ptr %8, align 4, !tbaa !9
  %63 = add nsw i32 %62, %61
  store i32 %63, ptr %8, align 4, !tbaa !9
  %64 = load i32, ptr %6, align 4, !tbaa !9
  store i32 %64, ptr %7, align 4, !tbaa !9
  br label %65

65:                                               ; preds = %59, %18
  %66 = load i32, ptr %7, align 4, !tbaa !9
  %67 = load ptr, ptr %4, align 8, !tbaa !67
  %68 = getelementptr inbounds nuw %struct.PutBitContext, ptr %67, i32 0, i32 0
  store i32 %66, ptr %68, align 8, !tbaa !75
  %69 = load i32, ptr %8, align 4, !tbaa !9
  %70 = load ptr, ptr %4, align 8, !tbaa !67
  %71 = getelementptr inbounds nuw %struct.PutBitContext, ptr %70, i32 0, i32 1
  store i32 %69, ptr %71, align 4, !tbaa !74
  call void @llvm.lifetime.end.p0(i64 4, ptr %8) #8
  call void @llvm.lifetime.end.p0(i64 4, ptr %7) #8
  ret void
}

; Function Attrs: inlinehint nounwind uwtable
define internal void @flush_put_bits(ptr noundef %0) #5 {
  %2 = alloca ptr, align 8
  store ptr %0, ptr %2, align 8, !tbaa !67
  %3 = load ptr, ptr %2, align 8, !tbaa !67
  %4 = getelementptr inbounds nuw %struct.PutBitContext, ptr %3, i32 0, i32 1
  %5 = load i32, ptr %4, align 4, !tbaa !74
  %6 = icmp slt i32 %5, 32
  br i1 %6, label %7, label %15

7:                                                ; preds = %1
  %8 = load ptr, ptr %2, align 8, !tbaa !67
  %9 = getelementptr inbounds nuw %struct.PutBitContext, ptr %8, i32 0, i32 1
  %10 = load i32, ptr %9, align 4, !tbaa !74
  %11 = load ptr, ptr %2, align 8, !tbaa !67
  %12 = getelementptr inbounds nuw %struct.PutBitContext, ptr %11, i32 0, i32 0
  %13 = load i32, ptr %12, align 8, !tbaa !75
  %14 = shl i32 %13, %10
  store i32 %14, ptr %12, align 8, !tbaa !75
  br label %15

15:                                               ; preds = %7, %1
  br label %16

16:                                               ; preds = %32, %15
  %17 = load ptr, ptr %2, align 8, !tbaa !67
  %18 = getelementptr inbounds nuw %struct.PutBitContext, ptr %17, i32 0, i32 1
  %19 = load i32, ptr %18, align 4, !tbaa !74
  %20 = icmp slt i32 %19, 32
  br i1 %20, label %21, label %50

21:                                               ; preds = %16
  br label %22

22:                                               ; preds = %21
  %23 = load ptr, ptr %2, align 8, !tbaa !67
  %24 = getelementptr inbounds nuw %struct.PutBitContext, ptr %23, i32 0, i32 3
  %25 = load ptr, ptr %24, align 8, !tbaa !73
  %26 = load ptr, ptr %2, align 8, !tbaa !67
  %27 = getelementptr inbounds nuw %struct.PutBitContext, ptr %26, i32 0, i32 4
  %28 = load ptr, ptr %27, align 8, !tbaa !72
  %29 = icmp ult ptr %25, %28
  br i1 %29, label %31, label %30

30:                                               ; preds = %22
  call void (ptr, i32, ptr, ...) @av_log(ptr noundef null, i32 noundef 0, ptr noundef @.str.4, ptr noundef @.str.5, ptr noundef @.str.6, i32 noundef 150)
  call void @abort() #9
  unreachable

31:                                               ; preds = %22
  br label %32

32:                                               ; preds = %31
  %33 = load ptr, ptr %2, align 8, !tbaa !67
  %34 = getelementptr inbounds nuw %struct.PutBitContext, ptr %33, i32 0, i32 0
  %35 = load i32, ptr %34, align 8, !tbaa !75
  %36 = lshr i32 %35, 24
  %37 = trunc i32 %36 to i8
  %38 = load ptr, ptr %2, align 8, !tbaa !67
  %39 = getelementptr inbounds nuw %struct.PutBitContext, ptr %38, i32 0, i32 3
  %40 = load ptr, ptr %39, align 8, !tbaa !73
  %41 = getelementptr inbounds nuw i8, ptr %40, i32 1
  store ptr %41, ptr %39, align 8, !tbaa !73
  store i8 %37, ptr %40, align 1, !tbaa !15
  %42 = load ptr, ptr %2, align 8, !tbaa !67
  %43 = getelementptr inbounds nuw %struct.PutBitContext, ptr %42, i32 0, i32 0
  %44 = load i32, ptr %43, align 8, !tbaa !75
  %45 = shl i32 %44, 8
  store i32 %45, ptr %43, align 8, !tbaa !75
  %46 = load ptr, ptr %2, align 8, !tbaa !67
  %47 = getelementptr inbounds nuw %struct.PutBitContext, ptr %46, i32 0, i32 1
  %48 = load i32, ptr %47, align 4, !tbaa !74
  %49 = add nsw i32 %48, 8
  store i32 %49, ptr %47, align 4, !tbaa !74
  br label %16, !llvm.loop !76

50:                                               ; preds = %16
  %51 = load ptr, ptr %2, align 8, !tbaa !67
  %52 = getelementptr inbounds nuw %struct.PutBitContext, ptr %51, i32 0, i32 1
  store i32 32, ptr %52, align 4, !tbaa !74
  %53 = load ptr, ptr %2, align 8, !tbaa !67
  %54 = getelementptr inbounds nuw %struct.PutBitContext, ptr %53, i32 0, i32 0
  store i32 0, ptr %54, align 8, !tbaa !75
  ret void
}

; Function Attrs: inlinehint nounwind uwtable
define internal void @put_bits(ptr noundef %0, i32 noundef %1, i32 noundef %2) #5 {
  %4 = alloca ptr, align 8
  %5 = alloca i32, align 4
  %6 = alloca i32, align 4
  store ptr %0, ptr %4, align 8, !tbaa !67
  store i32 %1, ptr %5, align 4, !tbaa !9
  store i32 %2, ptr %6, align 4, !tbaa !9
  %7 = load ptr, ptr %4, align 8, !tbaa !67
  %8 = load i32, ptr %5, align 4, !tbaa !9
  %9 = load i32, ptr %6, align 4, !tbaa !9
  call void @put_bits_no_assert(ptr noundef %7, i32 noundef %8, i32 noundef %9)
  ret void
}

; Function Attrs: inlinehint nounwind uwtable
define internal void @init_put_bits(ptr noundef %0, ptr noundef %1, i32 noundef %2) #5 {
  %4 = alloca ptr, align 8
  %5 = alloca ptr, align 8
  %6 = alloca i32, align 4
  store ptr %0, ptr %4, align 8, !tbaa !67
  store ptr %1, ptr %5, align 8, !tbaa !69
  store i32 %2, ptr %6, align 4, !tbaa !9
  %7 = load i32, ptr %6, align 4, !tbaa !9
  %8 = icmp slt i32 %7, 0
  br i1 %8, label %9, label %10

9:                                                ; preds = %3
  store i32 0, ptr %6, align 4, !tbaa !9
  store ptr null, ptr %5, align 8, !tbaa !69
  br label %10

10:                                               ; preds = %9, %3
  %11 = load ptr, ptr %5, align 8, !tbaa !69
  %12 = load ptr, ptr %4, align 8, !tbaa !67
  %13 = getelementptr inbounds nuw %struct.PutBitContext, ptr %12, i32 0, i32 2
  store ptr %11, ptr %13, align 8, !tbaa !70
  %14 = load ptr, ptr %4, align 8, !tbaa !67
  %15 = getelementptr inbounds nuw %struct.PutBitContext, ptr %14, i32 0, i32 2
  %16 = load ptr, ptr %15, align 8, !tbaa !70
  %17 = load i32, ptr %6, align 4, !tbaa !9
  %18 = sext i32 %17 to i64
  %19 = getelementptr inbounds i8, ptr %16, i64 %18
  %20 = load ptr, ptr %4, align 8, !tbaa !67
  %21 = getelementptr inbounds nuw %struct.PutBitContext, ptr %20, i32 0, i32 4
  store ptr %19, ptr %21, align 8, !tbaa !72
  %22 = load ptr, ptr %4, align 8, !tbaa !67
  %23 = getelementptr inbounds nuw %struct.PutBitContext, ptr %22, i32 0, i32 2
  %24 = load ptr, ptr %23, align 8, !tbaa !70
  %25 = load ptr, ptr %4, align 8, !tbaa !67
  %26 = getelementptr inbounds nuw %struct.PutBitContext, ptr %25, i32 0, i32 3
  store ptr %24, ptr %26, align 8, !tbaa !73
  %27 = load ptr, ptr %4, align 8, !tbaa !67
  %28 = getelementptr inbounds nuw %struct.PutBitContext, ptr %27, i32 0, i32 1
  store i32 32, ptr %28, align 4, !tbaa !74
  %29 = load ptr, ptr %4, align 8, !tbaa !67
  %30 = getelementptr inbounds nuw %struct.PutBitContext, ptr %29, i32 0, i32 0
  store i32 0, ptr %30, align 8, !tbaa !75
  ret void
}

; Function Attrs: alwaysinline nounwind uwtable
define internal i64 @avio_tell(ptr noundef %0) #4 {
  %2 = alloca ptr, align 8
  store ptr %0, ptr %2, align 8, !tbaa !53
  %3 = load ptr, ptr %2, align 8, !tbaa !53
  %4 = call i64 @avio_seek(ptr noundef %3, i64 noundef 0, i32 noundef 1)
  ret i64 %4
}

; Function Attrs: nounwind uwtable
define internal i32 @read_packet(ptr noundef %0, ptr noundef %1) #0 {
  %3 = alloca i32, align 4
  %4 = alloca ptr, align 8
  %5 = alloca ptr, align 8
  %6 = alloca ptr, align 8
  %7 = alloca %struct.PutBitContext, align 8
  %8 = alloca [82 x i16], align 16
  %9 = alloca i32, align 4
  %10 = alloca ptr, align 8
  %11 = alloca i32, align 4
  %12 = alloca i32, align 4
  %13 = alloca i32, align 4
  %14 = alloca i64, align 8
  %15 = alloca i32, align 4
  store ptr %0, ptr %4, align 8, !tbaa !18
  store ptr %1, ptr %5, align 8, !tbaa !39
  call void @llvm.lifetime.start.p0(i64 8, ptr %6) #8
  %16 = load ptr, ptr %4, align 8, !tbaa !18
  %17 = getelementptr inbounds nuw %struct.AVFormatContext, ptr %16, i32 0, i32 4
  %18 = load ptr, ptr %17, align 8, !tbaa !41
  store ptr %18, ptr %6, align 8, !tbaa !53
  call void @llvm.lifetime.start.p0(i64 32, ptr %7) #8
  call void @llvm.lifetime.start.p0(i64 164, ptr %8) #8
  call void @llvm.lifetime.start.p0(i64 4, ptr %9) #8
  call void @llvm.lifetime.start.p0(i64 8, ptr %10) #8
  %19 = getelementptr inbounds [82 x i16], ptr %8, i64 0, i64 0
  store ptr %19, ptr %10, align 8, !tbaa !54
  call void @llvm.lifetime.start.p0(i64 4, ptr %11) #8
  call void @llvm.lifetime.start.p0(i64 4, ptr %12) #8
  call void @llvm.lifetime.start.p0(i64 4, ptr %13) #8
  call void @llvm.lifetime.start.p0(i64 8, ptr %14) #8
  %20 = load ptr, ptr %6, align 8, !tbaa !53
  %21 = call i64 @avio_tell(ptr noundef %20)
  store i64 %21, ptr %14, align 8, !tbaa !56
  %22 = load ptr, ptr %6, align 8, !tbaa !53
  %23 = call i32 @avio_feof(ptr noundef %22)
  %24 = icmp ne i32 %23, 0
  br i1 %24, label %25, label %26

25:                                               ; preds = %2
  store i32 -541478725, ptr %3, align 4
  store i32 1, ptr %15, align 4
  br label %97

26:                                               ; preds = %2
  %27 = load ptr, ptr %6, align 8, !tbaa !53
  %28 = call i32 @avio_rl16(ptr noundef %27)
  %29 = load ptr, ptr %6, align 8, !tbaa !53
  %30 = call i32 @avio_rl16(ptr noundef %29)
  %31 = udiv i32 %30, 8
  store i32 %31, ptr %9, align 4, !tbaa !9
  %32 = load i32, ptr %9, align 4, !tbaa !9
  %33 = icmp sgt i32 %32, 10
  br i1 %33, label %34, label %35

34:                                               ; preds = %26
  store i32 -1094995529, ptr %3, align 4
  store i32 1, ptr %15, align 4
  br label %97

35:                                               ; preds = %26
  %36 = load ptr, ptr %6, align 8, !tbaa !53
  %37 = getelementptr inbounds [82 x i16], ptr %8, i64 0, i64 0
  %38 = load i32, ptr %9, align 4, !tbaa !9
  %39 = mul nsw i32 8, %38
  %40 = sext i32 %39 to i64
  %41 = mul i64 %40, 2
  %42 = trunc i64 %41 to i32
  %43 = call i32 @avio_read(ptr noundef %36, ptr noundef %37, i32 noundef %42)
  store i32 %43, ptr %13, align 4, !tbaa !9
  %44 = load i32, ptr %13, align 4, !tbaa !9
  %45 = icmp slt i32 %44, 0
  br i1 %45, label %46, label %48

46:                                               ; preds = %35
  %47 = load i32, ptr %13, align 4, !tbaa !9
  store i32 %47, ptr %3, align 4
  store i32 1, ptr %15, align 4
  br label %97

48:                                               ; preds = %35
  %49 = load i32, ptr %13, align 4, !tbaa !9
  %50 = sext i32 %49 to i64
  %51 = load i32, ptr %9, align 4, !tbaa !9
  %52 = mul nsw i32 8, %51
  %53 = sext i32 %52 to i64
  %54 = mul i64 %53, 2
  %55 = icmp ne i64 %50, %54
  br i1 %55, label %56, label %57

56:                                               ; preds = %48
  store i32 -5, ptr %3, align 4
  store i32 1, ptr %15, align 4
  br label %97

57:                                               ; preds = %48
  %58 = load ptr, ptr %5, align 8, !tbaa !39
  %59 = load i32, ptr %9, align 4, !tbaa !9
  %60 = call i32 @av_new_packet(ptr noundef %58, i32 noundef %59)
  store i32 %60, ptr %13, align 4, !tbaa !9
  %61 = icmp slt i32 %60, 0
  br i1 %61, label %62, label %64

62:                                               ; preds = %57
  %63 = load i32, ptr %13, align 4, !tbaa !9
  store i32 %63, ptr %3, align 4
  store i32 1, ptr %15, align 4
  br label %97

64:                                               ; preds = %57
  %65 = load ptr, ptr %5, align 8, !tbaa !39
  %66 = getelementptr inbounds nuw %struct.AVPacket, ptr %65, i32 0, i32 3
  %67 = load ptr, ptr %66, align 8, !tbaa !57
  %68 = load i32, ptr %9, align 4, !tbaa !9
  call void @init_put_bits(ptr noundef %7, ptr noundef %67, i32 noundef %68)
  store i32 0, ptr %12, align 4, !tbaa !9
  br label %69

69:                                               ; preds = %88, %64
  %70 = load i32, ptr %12, align 4, !tbaa !9
  %71 = load i32, ptr %9, align 4, !tbaa !9
  %72 = icmp slt i32 %70, %71
  br i1 %72, label %73, label %91

73:                                               ; preds = %69
  store i32 0, ptr %11, align 4, !tbaa !9
  br label %74

74:                                               ; preds = %84, %73
  %75 = load i32, ptr %11, align 4, !tbaa !9
  %76 = icmp slt i32 %75, 8
  br i1 %76, label %77, label %87

77:                                               ; preds = %74
  %78 = load ptr, ptr %10, align 8, !tbaa !54
  %79 = getelementptr inbounds nuw i16, ptr %78, i32 1
  store ptr %79, ptr %10, align 8, !tbaa !54
  %80 = load i16, ptr %78, align 1, !tbaa !15
  %81 = zext i16 %80 to i32
  %82 = icmp eq i32 %81, 129
  %83 = select i1 %82, i32 1, i32 0
  call void @put_bits(ptr noundef %7, i32 noundef 1, i32 noundef %83)
  br label %84

84:                                               ; preds = %77
  %85 = load i32, ptr %11, align 4, !tbaa !9
  %86 = add nsw i32 %85, 1
  store i32 %86, ptr %11, align 4, !tbaa !9
  br label %74, !llvm.loop !58

87:                                               ; preds = %74
  br label %88

88:                                               ; preds = %87
  %89 = load i32, ptr %12, align 4, !tbaa !9
  %90 = add nsw i32 %89, 1
  store i32 %90, ptr %12, align 4, !tbaa !9
  br label %69, !llvm.loop !59

91:                                               ; preds = %69
  call void @flush_put_bits(ptr noundef %7)
  %92 = load ptr, ptr %5, align 8, !tbaa !39
  %93 = getelementptr inbounds nuw %struct.AVPacket, ptr %92, i32 0, i32 9
  store i64 1, ptr %93, align 8, !tbaa !60
  %94 = load i64, ptr %14, align 8, !tbaa !56
  %95 = load ptr, ptr %5, align 8, !tbaa !39
  %96 = getelementptr inbounds nuw %struct.AVPacket, ptr %95, i32 0, i32 10
  store i64 %94, ptr %96, align 8, !tbaa !61
  store i32 0, ptr %3, align 4
  store i32 1, ptr %15, align 4
  br label %97

97:                                               ; preds = %91, %62, %56, %46, %34, %25
  call void @llvm.lifetime.end.p0(i64 8, ptr %14) #8
  call void @llvm.lifetime.end.p0(i64 4, ptr %13) #8
  call void @llvm.lifetime.end.p0(i64 4, ptr %12) #8
  call void @llvm.lifetime.end.p0(i64 4, ptr %11) #8
  call void @llvm.lifetime.end.p0(i64 8, ptr %10) #8
  call void @llvm.lifetime.end.p0(i64 4, ptr %9) #8
  call void @llvm.lifetime.end.p0(i64 164, ptr %8) #8
  call void @llvm.lifetime.end.p0(i64 32, ptr %7) #8
  call void @llvm.lifetime.end.p0(i64 8, ptr %6) #8
  %98 = load i32, ptr %3, align 4
  ret i32 %98
}