; Function Attrs: nounwind uwtable
define internal range(i32 -2147483648, 1) i32 @read_packet(ptr noundef readonly captures(none) %0, ptr noundef %1) #1 {
  %3 = alloca [82 x i16], align 16
  %4 = getelementptr inbounds nuw i8, ptr %0, i64 32
  %5 = load ptr, ptr %4, align 8, !tbaa !32
  call void @llvm.lifetime.start.p0(i64 164, ptr nonnull %3) #7
  %6 = tail call i64 @avio_seek(ptr noundef %5, i64 noundef 0, i32 noundef 1) #7
  %7 = tail call i32 @avio_feof(ptr noundef %5) #7
  %.not = icmp eq i32 %7, 0
  br i1 %.not, label %8, label %67

8:                                                ; preds = %2
  %9 = tail call i32 @avio_rl16(ptr noundef %5) #7
  %10 = tail call i32 @avio_rl16(ptr noundef %5) #7
  %11 = lshr i32 %10, 3
  %12 = icmp ugt i32 %10, 87
  br i1 %12, label %67, label %13

13:                                               ; preds = %8
  %14 = shl nuw nsw i32 %10, 1
  %15 = and i32 %14, 240
  %16 = call i32 @avio_read(ptr noundef %5, ptr noundef nonnull %3, i32 noundef %15) #7
  %17 = icmp slt i32 %16, 0
  br i1 %17, label %67, label %18

18:                                               ; preds = %13
  %.not33 = icmp eq i32 %16, %15
  br i1 %.not33, label %19, label %67

19:                                               ; preds = %18
  %20 = call i32 @av_new_packet(ptr noundef %1, i32 noundef %11) #7
  %21 = icmp slt i32 %20, 0
  br i1 %21, label %67, label %22

22:                                               ; preds = %19
  %23 = getelementptr inbounds nuw i8, ptr %1, i64 24
  %24 = load ptr, ptr %23, align 8, !tbaa !44
  %25 = zext nneg i32 %11 to i64
  %26 = getelementptr inbounds nuw i8, ptr %24, i64 %25
  %.not54 = icmp samesign ult i32 %10, 8
  br i1 %.not54, label %flush_put_bits.exit, label %.preheader.lr.ph

.preheader.lr.ph:                                 ; preds = %22
  %27 = ptrtoint ptr %26 to i64
  br label %.preheader

.preheader:                                       ; preds = %.preheader.lr.ph, %51
  %.02651 = phi i32 [ 0, %.preheader.lr.ph ], [ %52, %51 ]
  %.02850 = phi ptr [ %3, %.preheader.lr.ph ], [ %29, %51 ]
  %.sroa.0.049 = phi i32 [ 0, %.preheader.lr.ph ], [ %.026.i.i, %51 ]
  %.sroa.11.048 = phi i32 [ 32, %.preheader.lr.ph ], [ %49, %51 ]
  %.sroa.19.047 = phi ptr [ %24, %.preheader.lr.ph ], [ %.sroa.19.2, %51 ]
  br label %28

28:                                               ; preds = %.preheader, %put_bits.exit
  %.02746 = phi i32 [ 0, %.preheader ], [ %50, %put_bits.exit ]
  %.145 = phi ptr [ %.02850, %.preheader ], [ %29, %put_bits.exit ]
  %.sroa.0.144 = phi i32 [ %.sroa.0.049, %.preheader ], [ %.026.i.i, %put_bits.exit ]
  %.sroa.11.143 = phi i32 [ %.sroa.11.048, %.preheader ], [ %49, %put_bits.exit ]
  %.sroa.19.142 = phi ptr [ %.sroa.19.047, %.preheader ], [ %.sroa.19.2, %put_bits.exit ]
  %29 = getelementptr inbounds nuw i8, ptr %.145, i64 2
  %30 = load i16, ptr %.145, align 1, !tbaa !12
  %31 = icmp eq i16 %30, 129
  %32 = zext i1 %31 to i32
  %33 = icmp sgt i32 %.sroa.11.143, 1
  br i1 %33, label %34, label %37

34:                                               ; preds = %28
  %35 = shl i32 %.sroa.0.144, 1
  %36 = or disjoint i32 %35, %32
  br label %put_bits.exit

37:                                               ; preds = %28
  %38 = ptrtoint ptr %.sroa.19.142 to i64
  %39 = sub i64 %27, %38
  %40 = icmp ugt i64 %39, 3
  br i1 %40, label %41, label %48

41:                                               ; preds = %37
  %42 = shl i32 %.sroa.0.144, %.sroa.11.143
  %43 = sub nsw i32 1, %.sroa.11.143
  %44 = lshr i32 %32, %43
  %45 = or i32 %44, %42
  %46 = call i32 @llvm.bswap.i32(i32 %45)
  store i32 %46, ptr %.sroa.19.142, align 1, !tbaa !12
  %47 = getelementptr inbounds nuw i8, ptr %.sroa.19.142, i64 4
  br label %put_bits.exit

48:                                               ; preds = %37
  call void (ptr, i32, ptr, ...) @av_log(ptr noundef null, i32 noundef 16, ptr noundef nonnull @.str.3) #7
  br label %put_bits.exit

put_bits.exit:                                    ; preds = %34, %41, %48
  %.sroa.19.2 = phi ptr [ %.sroa.19.142, %34 ], [ %47, %41 ], [ %.sroa.19.142, %48 ]
  %.sink.i.i = phi i32 [ -1, %34 ], [ 31, %41 ], [ 31, %48 ]
  %.026.i.i = phi i32 [ %36, %34 ], [ %32, %41 ], [ %32, %48 ]
  %49 = add nsw i32 %.sink.i.i, %.sroa.11.143
  %50 = add nuw nsw i32 %.02746, 1
  %exitcond.not = icmp eq i32 %50, 8
  br i1 %exitcond.not, label %51, label %28, !llvm.loop !45

51:                                               ; preds = %put_bits.exit
  %52 = add nuw nsw i32 %.02651, 1
  %exitcond56.not = icmp eq i32 %52, %11
  br i1 %exitcond56.not, label %._crit_edge, label %.preheader, !llvm.loop !46

._crit_edge:                                      ; preds = %51
  %53 = icmp slt i32 %49, 32
  br i1 %53, label %.lr.ph.i, label %flush_put_bits.exit

.lr.ph.i:                                         ; preds = %._crit_edge
  %54 = shl i32 %.026.i.i, %49
  br label %55

55:                                               ; preds = %58, %.lr.ph.i
  %.sroa.19.3 = phi ptr [ %.sroa.19.2, %.lr.ph.i ], [ %61, %58 ]
  %.sroa.11.2 = phi i32 [ %49, %.lr.ph.i ], [ %63, %58 ]
  %.sroa.0.2 = phi i32 [ %54, %.lr.ph.i ], [ %62, %58 ]
  %56 = icmp ult ptr %.sroa.19.3, %26
  br i1 %56, label %58, label %57

57:                                               ; preds = %55
  call void (ptr, i32, ptr, ...) @av_log(ptr noundef null, i32 noundef 0, ptr noundef nonnull @.str.4, ptr noundef nonnull @.str.5, ptr noundef nonnull @.str.6, i32 noundef 150) #7
  call void @abort() #8
  unreachable

58:                                               ; preds = %55
  %59 = lshr i32 %.sroa.0.2, 24
  %60 = trunc nuw i32 %59 to i8
  %61 = getelementptr inbounds nuw i8, ptr %.sroa.19.3, i64 1
  store i8 %60, ptr %.sroa.19.3, align 1, !tbaa !12
  %62 = shl i32 %.sroa.0.2, 8
  %63 = add nsw i32 %.sroa.11.2, 8
  %64 = icmp slt i32 %.sroa.11.2, 24
  br i1 %64, label %55, label %flush_put_bits.exit, !llvm.loop !47

flush_put_bits.exit:                              ; preds = %58, %22, %._crit_edge
  %65 = getelementptr inbounds nuw i8, ptr %1, i64 64
  store i64 1, ptr %65, align 8, !tbaa !48
  %66 = getelementptr inbounds nuw i8, ptr %1, i64 72
  store i64 %6, ptr %66, align 8, !tbaa !49
  br label %67

67:                                               ; preds = %19, %18, %13, %8, %2, %flush_put_bits.exit
  %.0 = phi i32 [ 0, %flush_put_bits.exit ], [ -541478725, %2 ], [ -1094995529, %8 ], [ %16, %13 ], [ -5, %18 ], [ %20, %19 ]
  call void @llvm.lifetime.end.p0(i64 164, ptr nonnull %3) #7
  ret i32 %.0
}